; Function Attrs: mustprogress nounwind uwtable
define dso_local noundef zeroext i1 @_ZNK4llvm15TargetInstrInfo21getInsertSubregInputsERKNS_12MachineInstrEjRNS0_13RegSubRegPairERNS0_19RegSubRegPairAndIdxE(ptr noundef nonnull align 8 dereferenceable(80) %0, ptr noundef nonnull align 8 dereferenceable(70) %1, i32 noundef %2, ptr noundef nonnull align 4 dereferenceable(8) %3, ptr noundef nonnull align 4 dereferenceable(12) %4) local_unnamed_addr #0 align 2 {
  %6 = getelementptr inbounds nuw i8, ptr %1, i64 68
  %7 = load i16, ptr %6, align 4
  %8 = icmp eq i16 %7, 9
  br i1 %8, label %14, label %9

9:                                                ; preds = %5
  %10 = load ptr, ptr %0, align 8
  %11 = getelementptr inbounds i8, ptr %10, i64 680
  %12 = load ptr, ptr %11, align 8
  %13 = tail call noundef zeroext i1 %12(ptr noundef nonnull align 8 dereferenceable(80) %0, ptr noundef nonnull align 8 dereferenceable(70) %1, i32 noundef %2, ptr noundef nonnull align 4 dereferenceable(8) %3, ptr noundef nonnull align 4 dereferenceable(12) %4) #26
  br label %38

14:                                               ; preds = %5
  %15 = getelementptr inbounds nuw i8, ptr %1, i64 32
  %16 = load ptr, ptr %15, align 8
  %17 = getelementptr inbounds i8, ptr %16, i64 64
  %18 = load i32, ptr %17, align 8
  %19 = and i32 %18, 268435456
  %.not = icmp eq i32 %19, 0
  br i1 %.not, label %20, label %38

20:                                               ; preds = %14
  %21 = getelementptr inbounds i8, ptr %16, i64 32
  %22 = getelementptr inbounds i8, ptr %16, i64 36
  %23 = load i32, ptr %22, align 4
  store i32 %23, ptr %3, align 4
  %24 = load i32, ptr %21, align 8
  %25 = lshr i32 %24, 8
  %26 = and i32 %25, 4095
  %27 = getelementptr inbounds nuw i8, ptr %3, i64 4
  store i32 %26, ptr %27, align 4
  %28 = getelementptr inbounds i8, ptr %16, i64 68
  %29 = load i32, ptr %28, align 4
  store i32 %29, ptr %4, align 4
  %30 = load i32, ptr %17, align 8
  %31 = lshr i32 %30, 8
  %32 = and i32 %31, 4095
  %33 = getelementptr inbounds nuw i8, ptr %4, i64 4
  store i32 %32, ptr %33, align 4
  %34 = getelementptr inbounds i8, ptr %16, i64 112
  %35 = load i64, ptr %34, align 8
  %36 = trunc i64 %35 to i32
  %37 = getelementptr inbounds nuw i8, ptr %4, i64 8
  store i32 %36, ptr %37, align 4
  br label %38

38:                                               ; preds = %14, %20, %9
  %.0 = phi i1 [ true, %20 ], [ %13, %9 ], [ false, %14 ]
  ret i1 %.0
}